Certificate:
    Data:
        Version: 3 (0x2)
        Serial Number: 4 (0x4)
        Signature Algorithm: ecdsa-with-SHA256
        Issuer: C=CN, ST=Beijing, L=Beijing, O=Anwei, OU=IT
        Validity
            Not Before: Dec  9 02:57:20 2019 GMT
            Not After : Dec  6 02:57:20 2029 GMT
        Subject: C=CN, ST=Beijing, O=Anwei, OU=IT
        Subject Public Key Info:
            Public Key Algorithm: id-ecPublicKey
                Public-Key: (256 bit)
                pub:
                    04:23:9c:ef:d1:ec:e7:8b:8b:57:57:99:ad:55:82:
                    a9:fc:a1:57:00:98:10:e8:62:81:77:e4:54:68:b0:
                    c1:53:80:b4:07:92:70:94:b5:d6:0d:4c:ce:00:e4:
                    93:fa:eb:5b:98:5e:ac:63:52:5d:5e:88:d9:25:e4:
                    6b:fb:f0:e5:c0
                ASN1 OID: SM2
        X509v3 extensions:
            X509v3 Basic Constraints: 
                CA:FALSE
            Netscape Comment: 
                OpenSSL Generated Certificate
            X509v3 Subject Key Identifier: 
                0B:EC:C3:65:74:CC:08:24:7C:61:31:45:00:AC:37:4F:1E:60:E6:B6
            X509v3 Authority Key Identifier: 
                keyid:69:E1:EB:4E:87:1F:C7:CD:22:6E:BF:12:CB:F7:DF:D0:49:38:1F:20

    Signature Algorithm: ecdsa-with-SHA256
         30:45:02:20:3f:47:99:fa:46:18:a4:f5:2d:2a:65:bc:9c:2f:
         08:a2:08:6e:ed:18:90:cc:4e:a8:3e:a2:5b:f2:75:10:47:75:
         02:21:00:d8:6f:39:51:f5:51:2b:8c:5a:7a:91:da:48:56:9d:
         9f:bc:a5:a3:f7:ac:f3:a7:b7:b0:18:8a:ed:22:fd:a0:4d
-----BEGIN CERTIFICATE-----
MIIB9DCCAZqgAwIBAgIBBDAKBggqhkjOPQQDAjBOMQswCQYDVQQGEwJDTjEQMA4G
A1UECAwHQmVpamluZzEQMA4GA1UEBwwHQmVpamluZzEOMAwGA1UECgwFQW53ZWkx
CzAJBgNVBAsMAklUMB4XDTE5MTIwOTAyNTcyMFoXDTI5MTIwNjAyNTcyMFowPDEL
MAkGA1UEBhMCQ04xEDAOBgNVBAgMB0JlaWppbmcxDjAMBgNVBAoMBUFud2VpMQsw
CQYDVQQLDAJJVDBZMBMGByqGSM49AgEGCCqBHM9VAYItA0IABCOc79Hs54uLV1eZ
rVWCqfyhVwCYEOhigXfkVGiwwVOAtAeScJS11g1MzgDkk/rrW5herGNSXV6I2SXk
a/vw5cCjezB5MAkGA1UdEwQCMAAwLAYJYIZIAYb4QgENBB8WHU9wZW5TU0wgR2Vu
ZXJhdGVkIENlcnRpZmljYXRlMB0GA1UdDgQWBBQL7MNldMwIJHxhMUUArDdPHmDm
tjAfBgNVHSMEGDAWgBRp4etOhx/HzSJuvxLL99/QSTgfIDAKBggqhkjOPQQDAgNI
ADBFAiA/R5n6Rhik9S0qZbycLwiiCG7tGJDMTqg+olvydRBHdQIhANhvOVH1USuM
WnqR2khWnZ+8paP3rPOnt7AYiu0i/aBN
-----END CERTIFICATE-----
