Certificate:
    Data:
        Version: 3 (0x2)
        Serial Number: 3 (0x3)
        Signature Algorithm: ecdsa-with-SHA256
        Issuer: C=CN, ST=Beijing, L=Beijing, O=Anwei, OU=IT
        Validity
            Not Before: Nov 27 09:57:28 2019 GMT
            Not After : Nov 26 09:57:28 2020 GMT
        Subject: C=CN, ST=Shanghai, O=HYC, OU=IT, CN=ssldun.com/emailAddress= admin@ssldun.com
        Subject Public Key Info:
            Public Key Algorithm: id-ecPublicKey
                Public-Key: (256 bit)
                pub:
                    04:39:63:bc:51:8a:2f:83:dc:a8:22:58:7a:34:74:
                    64:f6:b6:db:38:7f:24:f0:ca:78:c7:cc:9e:ea:55:
                    df:41:39:da:37:f8:bd:67:12:b7:79:32:f0:16:c6:
                    7a:8d:e0:5f:f8:9c:ff:a4:f0:2a:68:35:ca:dd:cd:
                    6b:bf:81:6b:ee
                ASN1 OID: prime256v1
                NIST CURVE: P-256
        X509v3 extensions:
            X509v3 Basic Constraints: 
                CA:FALSE
            Netscape Comment: 
                OpenSSL Generated Certificate
            X509v3 Subject Key Identifier: 
                FB:0D:53:8A:43:5F:6C:E7:4C:3B:B4:06:48:CB:FF:BC:57:E5:B3:DE
            X509v3 Authority Key Identifier: 
                keyid:69:E1:EB:4E:87:1F:C7:CD:22:6E:BF:12:CB:F7:DF:D0:49:38:1F:20

    Signature Algorithm: ecdsa-with-SHA256
         30:45:02:20:7a:60:1b:b3:86:5b:ae:dc:35:39:3f:3b:23:a3:
         51:a8:27:ce:c2:58:af:6c:4e:dd:6b:8c:4c:00:1a:75:c7:3f:
         02:21:00:bb:f2:f3:3f:ff:4b:2e:b8:ae:a8:ad:60:e6:45:58:
         6c:3a:11:db:f2:32:33:b4:b4:59:44:96:a8:8e:b9:19:ef
-----BEGIN CERTIFICATE-----
MIICKjCCAdCgAwIBAgIBAzAKBggqhkjOPQQDAjBOMQswCQYDVQQGEwJDTjEQMA4G
A1UECAwHQmVpamluZzEQMA4GA1UEBwwHQmVpamluZzEOMAwGA1UECgwFQW53ZWkx
CzAJBgNVBAsMAklUMB4XDTE5MTEyNzA5NTcyOFoXDTIwMTEyNjA5NTcyOFowcjEL
MAkGA1UEBhMCQ04xETAPBgNVBAgMCFNoYW5naGFpMQwwCgYDVQQKDANIWUMxCzAJ
BgNVBAsMAklUMRMwEQYDVQQDDApzc2xkdW4uY29tMSAwHgYJKoZIhvcNAQkBFhEg
YWRtaW5Ac3NsZHVuLmNvbTBZMBMGByqGSM49AgEGCCqGSM49AwEHA0IABDljvFGK
L4PcqCJYejR0ZPa22zh/JPDKeMfMnupV30E52jf4vWcSt3ky8BbGeo3gX/ic/6Tw
Kmg1yt3Na7+Ba+6jezB5MAkGA1UdEwQCMAAwLAYJYIZIAYb4QgENBB8WHU9wZW5T
U0wgR2VuZXJhdGVkIENlcnRpZmljYXRlMB0GA1UdDgQWBBT7DVOKQ19s50w7tAZI
y/+8V+Wz3jAfBgNVHSMEGDAWgBRp4etOhx/HzSJuvxLL99/QSTgfIDAKBggqhkjO
PQQDAgNIADBFAiB6YBuzhluu3DU5Pzsjo1GoJ87CWK9sTt1rjEwAGnXHPwIhALvy
8z//Sy64rqitYOZFWGw6EdvyMjO0tFlElqiOuRnv
-----END CERTIFICATE-----
